target datalayout = "e-m:e-p270:32:32-p271:32:32-p272:64:64-i64:64-i128:128-f80:128-n8:16:32:64-S128"
target triple = "x86_64-pc-linux-gnu"

%"class.grpc_core::(anonymous namespace)::CommaSeparatedLists" = type <{ [8 x %"class.std::basic_string_view"], [86 x i8], [2 x i8] }>
%"class.std::basic_string_view" = type { i64, ptr }
%"class.grpc_core::CompressionAlgorithmSet" = type { %"class.grpc_core::BitSet" }
%"class.grpc_core::BitSet" = type { [1 x i8] }

@_ZN9grpc_core12_GLOBAL__N_120kCommaSeparatedListsE = internal global %"class.grpc_core::(anonymous namespace)::CommaSeparatedLists" zeroinitializer, align 8

; Function Attrs: mustprogress nounwind uwtable
define linkonce_odr noundef zeroext i8 @_ZN9grpc_core6BitSetILm3ELm8EE8mask_forEm(i64 noundef %0) #4 comdat align 2 {
  %2 = alloca i64, align 8
  store i64 %0, ptr %2, align 8, !tbaa !17
  %3 = load i64, ptr %2, align 8, !tbaa !17
  %4 = urem i64 %3, 8
  %5 = trunc i64 %4 to i32
  %6 = shl i32 1, %5
  %7 = trunc i32 %6 to i8
  ret i8 %7
}

; Function Attrs: mustprogress nounwind uwtable
define linkonce_odr noundef i64 @_ZN9grpc_core6BitSetILm3ELm8EE8unit_forEm(i64 noundef %0) #4 comdat align 2 {
  %2 = alloca i64, align 8
  store i64 %0, ptr %2, align 8, !tbaa !17
  %3 = load i64, ptr %2, align 8, !tbaa !17
  %4 = udiv i64 %3, 8
  ret i64 %4
}

; Function Attrs: mustprogress uwtable
define linkonce_odr noundef zeroext i1 @_ZNK9grpc_core6BitSetILm3ELm8EE6is_setEi(ptr noundef nonnull align 1 dereferenceable(1) %0, i32 noundef %1) #5 comdat align 2 {
  %3 = alloca ptr, align 8
  %4 = alloca i32, align 4
  store ptr %0, ptr %3, align 8, !tbaa !66
  store i32 %1, ptr %4, align 4, !tbaa !37
  %5 = load ptr, ptr %3, align 8
  %6 = getelementptr inbounds nuw %"class.grpc_core::BitSet", ptr %5, i32 0, i32 0
  %7 = load i32, ptr %4, align 4, !tbaa !37
  %8 = sext i32 %7 to i64
  %9 = call noundef i64 @_ZN9grpc_core6BitSetILm3ELm8EE8unit_forEm(i64 noundef %8)
  %10 = getelementptr inbounds nuw [1 x i8], ptr %6, i64 0, i64 %9
  %11 = load i8, ptr %10, align 1, !tbaa !19
  %12 = zext i8 %11 to i32
  %13 = load i32, ptr %4, align 4, !tbaa !37
  %14 = sext i32 %13 to i64
  %15 = call noundef zeroext i8 @_ZN9grpc_core6BitSetILm3ELm8EE8mask_forEm(i64 noundef %14)
  %16 = zext i8 %15 to i32
  %17 = and i32 %12, %16
  %18 = icmp ne i32 %17, 0
  ret i1 %18
}

; Function Attrs: mustprogress uwtable
define linkonce_odr noundef i32 @_ZNK9grpc_core6BitSetILm3ELm8EE5ToIntIjEENSt9enable_ifIXaasr3std11is_unsignedIT_EE5valuegemlstS4_Li8ELm3EES4_E4typeEv(ptr noundef nonnull align 1 dereferenceable(1) %0) #5 comdat align 2 {
  %2 = alloca ptr, align 8
  %3 = alloca i32, align 4
  %4 = alloca i64, align 8
  store ptr %0, ptr %2, align 8, !tbaa !66
  %5 = load ptr, ptr %2, align 8
  call void @llvm.lifetime.start.p0(i64 4, ptr %3) #3
  store i32 0, ptr %3, align 4, !tbaa !37
  call void @llvm.lifetime.start.p0(i64 8, ptr %4) #3
  store i64 0, ptr %4, align 8, !tbaa !17
  br label %6

6:                                                ; preds = %21, %1
  %7 = load i64, ptr %4, align 8, !tbaa !17
  %8 = icmp ult i64 %7, 3
  br i1 %8, label %10, label %9

9:                                                ; preds = %6
  call void @llvm.lifetime.end.p0(i64 8, ptr %4) #3
  br label %24

10:                                               ; preds = %6
  %11 = load i64, ptr %4, align 8, !tbaa !17
  %12 = trunc i64 %11 to i32
  %13 = call noundef zeroext i1 @_ZNK9grpc_core6BitSetILm3ELm8EE6is_setEi(ptr noundef nonnull align 1 dereferenceable(1) %5, i32 noundef %12)
  br i1 %13, label %14, label %20

14:                                               ; preds = %10
  %15 = load i64, ptr %4, align 8, !tbaa !17
  %16 = trunc i64 %15 to i32
  %17 = shl i32 1, %16
  %18 = load i32, ptr %3, align 4, !tbaa !37
  %19 = or i32 %18, %17
  store i32 %19, ptr %3, align 4, !tbaa !37
  br label %20

20:                                               ; preds = %14, %10
  br label %21

21:                                               ; preds = %20
  %22 = load i64, ptr %4, align 8, !tbaa !17
  %23 = add i64 %22, 1
  store i64 %23, ptr %4, align 8, !tbaa !17
  br label %6, !llvm.loop !87

24:                                               ; preds = %9
  %25 = load i32, ptr %3, align 4, !tbaa !37
  call void @llvm.lifetime.end.p0(i64 4, ptr %3) #3
  ret i32 %25
}

; Function Attrs: mustprogress nounwind uwtable
define internal { i64, ptr } @_ZNK9grpc_core12_GLOBAL__N_119CommaSeparatedListsixEm(ptr noundef nonnull align 8 dereferenceable(214) %0, i64 noundef %1) #4 align 2 {
  %3 = alloca %"class.std::basic_string_view", align 8
  %4 = alloca ptr, align 8
  %5 = alloca i64, align 8
  store ptr %0, ptr %4, align 8, !tbaa !7
  store i64 %1, ptr %5, align 8, !tbaa !17
  %6 = load ptr, ptr %4, align 8
  %7 = getelementptr inbounds nuw %"class.grpc_core::(anonymous namespace)::CommaSeparatedLists", ptr %6, i32 0, i32 0
  %8 = load i64, ptr %5, align 8, !tbaa !17
  %9 = getelementptr inbounds nuw [8 x %"class.std::basic_string_view"], ptr %7, i64 0, i64 %8
  call void @llvm.memcpy.p0.p0.i64(ptr align 8 %3, ptr align 8 %9, i64 16, i1 false), !tbaa.struct !23
  %10 = load { i64, ptr }, ptr %3, align 8
  ret { i64, ptr } %10
}

; Function Attrs: mustprogress uwtable
define noundef i32 @_ZNK9grpc_core23CompressionAlgorithmSet15ToLegacyBitmaskEv(ptr noundef nonnull align 1 dereferenceable(1) %0) #5 align 2 {
  %2 = alloca ptr, align 8
  store ptr %0, ptr %2, align 8, !tbaa !33
  %3 = load ptr, ptr %2, align 8
  %4 = getelementptr inbounds nuw %"class.grpc_core::CompressionAlgorithmSet", ptr %3, i32 0, i32 0
  %5 = call noundef i32 @_ZNK9grpc_core6BitSetILm3ELm8EE5ToIntIjEENSt9enable_ifIXaasr3std11is_unsignedIT_EE5valuegemlstS4_Li8ELm3EES4_E4typeEv(ptr noundef nonnull align 1 dereferenceable(1) %4)
  ret i32 %5
}

; Function Attrs: mustprogress uwtable
define { i64, ptr } @_ZNK9grpc_core23CompressionAlgorithmSet8ToStringEv(ptr noundef nonnull align 1 dereferenceable(1) %0) #5 align 2 {
  %2 = alloca %"class.std::basic_string_view", align 8
  %3 = alloca ptr, align 8
  store ptr %0, ptr %3, align 8, !tbaa !33
  %4 = load ptr, ptr %3, align 8
  %5 = call noundef i32 @_ZNK9grpc_core23CompressionAlgorithmSet15ToLegacyBitmaskEv(ptr noundef nonnull align 1 dereferenceable(1) %4)
  %6 = zext i32 %5 to i64
  %7 = call { i64, ptr } @_ZNK9grpc_core12_GLOBAL__N_119CommaSeparatedListsixEm(ptr noundef nonnull align 8 dereferenceable(214) @_ZN9grpc_core12_GLOBAL__N_120kCommaSeparatedListsE, i64 noundef %6)
  %8 = getelementptr inbounds nuw { i64, ptr }, ptr %2, i32 0, i32 0
  %9 = extractvalue { i64, ptr } %7, 0
  store i64 %9, ptr %8, align 8
  %10 = getelementptr inbounds nuw { i64, ptr }, ptr %2, i32 0, i32 1
  %11 = extractvalue { i64, ptr } %7, 1
  store ptr %11, ptr %10, align 8
  %12 = load { i64, ptr }, ptr %2, align 8
  ret { i64, ptr } %12
}