; Function Attrs: mustprogress nofree norecurse nosync nounwind willreturn memory(read, inaccessiblemem: none) uwtable
define { i64, ptr } @_ZNK9grpc_core23CompressionAlgorithmSet8ToStringEv(ptr noundef nonnull readonly align 1 captures(none) dereferenceable(1) %0) local_unnamed_addr #15 align 2 {
  %2 = load i8, ptr %0, align 1, !tbaa !6
  br label %3

3:                                                ; preds = %3, %1
  %.08.i.i = phi i64 [ 0, %1 ], [ %10, %3 ]
  %.067.i.i = phi i32 [ 0, %1 ], [ %.1.i.i, %3 ]
  %4 = trunc nuw nsw i64 %.08.i.i to i32
  %5 = trunc nuw i64 %.08.i.i to i8
  %6 = shl nuw nsw i8 1, %5
  %7 = and i8 %6, %2
  %.not.i.i = icmp eq i8 %7, 0
  %8 = shl nuw nsw i32 1, %4
  %9 = select i1 %.not.i.i, i32 0, i32 %8
  %.1.i.i = or i32 %9, %.067.i.i
  %10 = add nuw nsw i64 %.08.i.i, 1
  %exitcond.not.i.i = icmp eq i64 %10, 3
  br i1 %exitcond.not.i.i, label %_ZNK9grpc_core23CompressionAlgorithmSet15ToLegacyBitmaskEv.exit, label %3, !llvm.loop !30

_ZNK9grpc_core23CompressionAlgorithmSet15ToLegacyBitmaskEv.exit: ; preds = %3
  %11 = zext i32 %.1.i.i to i64
  %12 = getelementptr inbounds nuw [8 x %"class.std::basic_string_view"], ptr @_ZN9grpc_core12_GLOBAL__N_120kCommaSeparatedListsE, i64 0, i64 %11
  %.sroa.0.0.copyload.i = load i64, ptr %12, align 8, !tbaa !23
  %.sroa.2.0..sroa_idx.i = getelementptr inbounds nuw i8, ptr %12, i64 8
  %.sroa.2.0.copyload.i = load ptr, ptr %.sroa.2.0..sroa_idx.i, align 8, !tbaa !31
  %.fca.0.insert.i = insertvalue { i64, ptr } poison, i64 %.sroa.0.0.copyload.i, 0
  %.fca.1.insert.i = insertvalue { i64, ptr } %.fca.0.insert.i, ptr %.sroa.2.0.copyload.i, 1
  ret { i64, ptr } %.fca.1.insert.i
}